target datalayout = "e-m:e-p270:32:32-p271:32:32-p272:64:64-i64:64-i128:128-f80:128-n8:16:32:64-S128"
target triple = "x86_64-pc-linux-gnu"

%struct._asn1_ctx_t = type { i32, i32, i8, ptr, ptr, ptr, ptr, ptr, %struct.anon, %struct.anon.2, %struct.anon.3, ptr }
%struct.anon = type { i32, i8, i8, i8, ptr, ptr, i32, i32, ptr, ptr, ptr, %union.anon }
%union.anon = type { %struct.anon.0 }
%struct.anon.0 = type { ptr }
%struct.anon.2 = type { ptr, ptr, ptr }
%struct.anon.3 = type { i32, i8, ptr, i32, i32, ptr, ptr, ptr, %union.anon.4 }
%union.anon.4 = type { %struct.anon.5 }
%struct.anon.5 = type { ptr }

@ett_ngap_EUTRAencryptionAlgorithms = internal global i32 0, align 4
@dissect_ngap_EUTRAencryptionAlgorithms.fields = internal constant [5 x ptr] [ptr @hf_ngap_EUTRAencryptionAlgorithms_eea1, ptr @hf_ngap_EUTRAencryptionAlgorithms_eea2, ptr @hf_ngap_EUTRAencryptionAlgorithms_eea3, ptr @hf_ngap_EUTRAencryptionAlgorithms_reserved, ptr null], align 16

; Function Attrs: null_pointer_is_valid sspstrong uwtable
define internal i32 @dissect_ngap_EUTRAencryptionAlgorithms(ptr noundef %0, i32 noundef %1, ptr noundef %2, ptr noundef %3, i32 noundef %4) #0 {
  %6 = alloca ptr, align 8
  %7 = alloca i32, align 4
  %8 = alloca ptr, align 8
  %9 = alloca ptr, align 8
  %10 = alloca i32, align 4
  %11 = alloca ptr, align 8
  %12 = alloca ptr, align 8
  store ptr %0, ptr %6, align 8
  store i32 %1, ptr %7, align 4
  store ptr %2, ptr %8, align 8
  store ptr %3, ptr %9, align 8
  store i32 %4, ptr %10, align 4
  call void @llvm.lifetime.start.p0(i64 8, ptr %11) #11
  store ptr null, ptr %11, align 8
  %13 = load ptr, ptr %6, align 8
  %14 = load i32, ptr %7, align 4
  %15 = load ptr, ptr %8, align 8
  %16 = load ptr, ptr %9, align 8
  %17 = load i32, ptr %10, align 4
  %18 = call i32 @dissect_per_bit_string(ptr noundef %13, i32 noundef %14, ptr noundef %15, ptr noundef %16, i32 noundef %17, i32 noundef 16, i32 noundef 16, i1 noundef zeroext true, ptr noundef null, i32 noundef 0, ptr noundef %11, ptr noundef null)
  store i32 %18, ptr %7, align 4
  %19 = load ptr, ptr %11, align 8
  %20 = icmp ne ptr %19, null
  br i1 %20, label %21, label %29

21:                                               ; preds = %5
  call void @llvm.lifetime.start.p0(i64 8, ptr %12) #11
  %22 = load ptr, ptr %8, align 8
  %23 = getelementptr inbounds nuw %struct._asn1_ctx_t, ptr %22, i32 0, i32 4
  %24 = load ptr, ptr %23, align 8
  %25 = load i32, ptr @ett_ngap_EUTRAencryptionAlgorithms, align 4
  %26 = call ptr @proto_item_add_subtree(ptr noundef %24, i32 noundef %25)
  store ptr %26, ptr %12, align 8
  %27 = load ptr, ptr %12, align 8
  %28 = load ptr, ptr %11, align 8
  call void @proto_tree_add_bitmask_list(ptr noundef %27, ptr noundef %28, i32 noundef 0, i32 noundef 2, ptr noundef @dissect_ngap_EUTRAencryptionAlgorithms.fields, i32 noundef 0)
  call void @llvm.lifetime.end.p0(i64 8, ptr %12) #11
  br label %29

29:                                               ; preds = %21, %5
  %30 = load i32, ptr %7, align 4
  call void @llvm.lifetime.end.p0(i64 8, ptr %11) #11
  ret i32 %30
}